target datalayout = "e-m:e-p270:32:32-p271:32:32-p272:64:64-i64:64-i128:128-f80:128-n8:16:32:64-S128"
target triple = "x86_64-pc-linux-gnu"

%struct._object = type { %union.anon, ptr }
%union.anon = type { i64 }
%struct._typeobject = type { %struct.PyVarObject, ptr, i64, i64, ptr, i64, ptr, ptr, ptr, ptr, ptr, ptr, ptr, ptr, ptr, ptr, ptr, ptr, ptr, i64, ptr, ptr, ptr, ptr, i64, ptr, ptr, ptr, ptr, ptr, ptr, ptr, ptr, ptr, i64, ptr, ptr, ptr, ptr, ptr, ptr, ptr, ptr, ptr, ptr, ptr, i32, ptr, ptr, i8, i16 }
%struct.PyVarObject = type { %struct._object, i64 }
%struct.PyASCIIObject = type { %struct._object, i64, i64, %struct.anon.0 }
%struct.anon.0 = type { i16, i16 }
%struct.PyCompactUnicodeObject = type { %struct.PyASCIIObject, i64, ptr }
%struct.PyUnicodeObject = type { %struct.PyCompactUnicodeObject, %union.anon.1 }
%union.anon.1 = type { ptr }

@.str.1 = private unnamed_addr constant [21 x i8] c"_array_reconstructor\00", align 1
@.str.3 = private unnamed_addr constant [11 x i8] c"argument 2\00", align 1
@.str.4 = private unnamed_addr constant [20 x i8] c"a unicode character\00", align 1
@PyExc_TypeError = external global ptr, align 8
@.str.5 = private unnamed_addr constant [91 x i8] c"_array_reconstructor(): argument 2 must be a unicode character, not a string of length %zd\00", align 1

; Function Attrs: inlinehint nounwind uwtable
define internal i32 @PyUnicode_IS_ASCII(ptr noundef %0) #3 {
  %2 = alloca ptr, align 8
  store ptr %0, ptr %2, align 8, !tbaa !3
  %3 = load ptr, ptr %2, align 8, !tbaa !3
  %4 = getelementptr inbounds nuw %struct.PyASCIIObject, ptr %3, i32 0, i32 3
  %5 = getelementptr inbounds nuw %struct.anon.0, ptr %4, i32 0, i32 1
  %6 = load i16, ptr %5, align 2
  %7 = lshr i16 %6, 4
  %8 = and i16 %7, 1
  %9 = zext i16 %8 to i32
  ret i32 %9
}

; Function Attrs: inlinehint nounwind uwtable
define internal ptr @_PyUnicode_NONCOMPACT_DATA(ptr noundef %0) #3 {
  %2 = alloca ptr, align 8
  %3 = alloca ptr, align 8
  store ptr %0, ptr %2, align 8, !tbaa !3
  call void @llvm.lifetime.start.p0(i64 8, ptr %3) #8
  %4 = load ptr, ptr %2, align 8, !tbaa !3
  %5 = getelementptr inbounds nuw %struct.PyUnicodeObject, ptr %4, i32 0, i32 1
  %6 = load ptr, ptr %5, align 8, !tbaa !36
  store ptr %6, ptr %3, align 8, !tbaa !8
  %7 = load ptr, ptr %3, align 8, !tbaa !8
  call void @llvm.lifetime.end.p0(i64 8, ptr %3) #8
  ret ptr %7
}

; Function Attrs: inlinehint nounwind uwtable
define internal ptr @_PyUnicode_COMPACT_DATA(ptr noundef %0) #3 {
  %2 = alloca ptr, align 8
  %3 = alloca ptr, align 8
  store ptr %0, ptr %3, align 8, !tbaa !3
  %4 = load ptr, ptr %3, align 8, !tbaa !3
  %5 = call i32 @PyUnicode_IS_ASCII(ptr noundef %4)
  %6 = icmp ne i32 %5, 0
  br i1 %6, label %7, label %10

7:                                                ; preds = %1
  %8 = load ptr, ptr %3, align 8, !tbaa !3
  %9 = getelementptr %struct.PyASCIIObject, ptr %8, i64 1
  store ptr %9, ptr %2, align 8
  br label %13

10:                                               ; preds = %1
  %11 = load ptr, ptr %3, align 8, !tbaa !3
  %12 = getelementptr %struct.PyCompactUnicodeObject, ptr %11, i64 1
  store ptr %12, ptr %2, align 8
  br label %13

13:                                               ; preds = %10, %7
  %14 = load ptr, ptr %2, align 8
  ret ptr %14
}

; Function Attrs: inlinehint nounwind uwtable
define internal i32 @PyUnicode_IS_COMPACT(ptr noundef %0) #3 {
  %2 = alloca ptr, align 8
  store ptr %0, ptr %2, align 8, !tbaa !3
  %3 = load ptr, ptr %2, align 8, !tbaa !3
  %4 = getelementptr inbounds nuw %struct.PyASCIIObject, ptr %3, i32 0, i32 3
  %5 = getelementptr inbounds nuw %struct.anon.0, ptr %4, i32 0, i32 1
  %6 = load i16, ptr %5, align 2
  %7 = lshr i16 %6, 3
  %8 = and i16 %7, 1
  %9 = zext i16 %8 to i32
  ret i32 %9
}

; Function Attrs: inlinehint nounwind uwtable
define internal ptr @_PyUnicode_DATA(ptr noundef %0) #3 {
  %2 = alloca ptr, align 8
  %3 = alloca ptr, align 8
  store ptr %0, ptr %3, align 8, !tbaa !3
  %4 = load ptr, ptr %3, align 8, !tbaa !3
  %5 = call i32 @PyUnicode_IS_COMPACT(ptr noundef %4)
  %6 = icmp ne i32 %5, 0
  br i1 %6, label %7, label %10

7:                                                ; preds = %1
  %8 = load ptr, ptr %3, align 8, !tbaa !3
  %9 = call ptr @_PyUnicode_COMPACT_DATA(ptr noundef %8)
  store ptr %9, ptr %2, align 8
  br label %13

10:                                               ; preds = %1
  %11 = load ptr, ptr %3, align 8, !tbaa !3
  %12 = call ptr @_PyUnicode_NONCOMPACT_DATA(ptr noundef %11)
  store ptr %12, ptr %2, align 8
  br label %13

13:                                               ; preds = %10, %7
  %14 = load ptr, ptr %2, align 8
  ret ptr %14
}

; Function Attrs: inlinehint nounwind uwtable
define internal i32 @PyUnicode_READ_CHAR(ptr noundef %0, i64 noundef %1) #3 {
  %3 = alloca i32, align 4
  %4 = alloca ptr, align 8
  %5 = alloca i64, align 8
  %6 = alloca i32, align 4
  %7 = alloca i32, align 4
  store ptr %0, ptr %4, align 8, !tbaa !3
  store i64 %1, ptr %5, align 8, !tbaa !21
  call void @llvm.lifetime.start.p0(i64 4, ptr %6) #8
  %8 = load ptr, ptr %4, align 8, !tbaa !3
  %9 = getelementptr inbounds nuw %struct.PyASCIIObject, ptr %8, i32 0, i32 3
  %10 = getelementptr inbounds nuw %struct.anon.0, ptr %9, i32 0, i32 1
  %11 = load i16, ptr %10, align 2
  %12 = and i16 %11, 7
  %13 = zext i16 %12 to i32
  store i32 %13, ptr %6, align 4, !tbaa !12
  %14 = load i32, ptr %6, align 4, !tbaa !12
  %15 = icmp eq i32 %14, 1
  br i1 %15, label %16, label %23

16:                                               ; preds = %2
  %17 = load ptr, ptr %4, align 8, !tbaa !3
  %18 = call ptr @_PyUnicode_DATA(ptr noundef %17)
  %19 = load i64, ptr %5, align 8, !tbaa !21
  %20 = getelementptr i8, ptr %18, i64 %19
  %21 = load i8, ptr %20, align 1, !tbaa !36
  %22 = zext i8 %21 to i32
  store i32 %22, ptr %3, align 4
  store i32 1, ptr %7, align 4
  br label %39

23:                                               ; preds = %2
  %24 = load i32, ptr %6, align 4, !tbaa !12
  %25 = icmp eq i32 %24, 2
  br i1 %25, label %26, label %33

26:                                               ; preds = %23
  %27 = load ptr, ptr %4, align 8, !tbaa !3
  %28 = call ptr @_PyUnicode_DATA(ptr noundef %27)
  %29 = load i64, ptr %5, align 8, !tbaa !21
  %30 = getelementptr i16, ptr %28, i64 %29
  %31 = load i16, ptr %30, align 2, !tbaa !37
  %32 = zext i16 %31 to i32
  store i32 %32, ptr %3, align 4
  store i32 1, ptr %7, align 4
  br label %39

33:                                               ; preds = %23
  %34 = load ptr, ptr %4, align 8, !tbaa !3
  %35 = call ptr @_PyUnicode_DATA(ptr noundef %34)
  %36 = load i64, ptr %5, align 8, !tbaa !21
  %37 = getelementptr i32, ptr %35, i64 %36
  %38 = load i32, ptr %37, align 4, !tbaa !12
  store i32 %38, ptr %3, align 4
  store i32 1, ptr %7, align 4
  br label %39

39:                                               ; preds = %33, %26, %16
  call void @llvm.lifetime.end.p0(i64 4, ptr %6) #8
  %40 = load i32, ptr %3, align 4
  ret i32 %40
}

; Function Attrs: inlinehint nounwind uwtable
define internal i64 @PyUnicode_GET_LENGTH(ptr noundef %0) #3 {
  %2 = alloca ptr, align 8
  store ptr %0, ptr %2, align 8, !tbaa !3
  %3 = load ptr, ptr %2, align 8, !tbaa !3
  %4 = getelementptr inbounds nuw %struct.PyASCIIObject, ptr %3, i32 0, i32 1
  %5 = load i64, ptr %4, align 8, !tbaa !33
  ret i64 %5
}

; Function Attrs: inlinehint nounwind uwtable
define internal i32 @PyType_HasFeature(ptr noundef %0, i64 noundef %1) #3 {
  %3 = alloca ptr, align 8
  %4 = alloca i64, align 8
  %5 = alloca i64, align 8
  store ptr %0, ptr %3, align 8, !tbaa !18
  store i64 %1, ptr %4, align 8, !tbaa !21
  call void @llvm.lifetime.start.p0(i64 8, ptr %5) #8
  %6 = load ptr, ptr %3, align 8, !tbaa !18
  %7 = getelementptr inbounds nuw %struct._typeobject, ptr %6, i32 0, i32 19
  %8 = load i64, ptr %7, align 8, !tbaa !23
  store i64 %8, ptr %5, align 8, !tbaa !21
  %9 = load i64, ptr %5, align 8, !tbaa !21
  %10 = load i64, ptr %4, align 8, !tbaa !21
  %11 = and i64 %9, %10
  %12 = icmp ne i64 %11, 0
  %13 = zext i1 %12 to i32
  call void @llvm.lifetime.end.p0(i64 8, ptr %5) #8
  ret i32 %13
}

; Function Attrs: inlinehint nounwind uwtable
define internal ptr @_Py_TYPE(ptr noundef %0) #3 {
  %2 = alloca ptr, align 8
  store ptr %0, ptr %2, align 8, !tbaa !3
  %3 = load ptr, ptr %2, align 8, !tbaa !3
  %4 = getelementptr inbounds nuw %struct._object, ptr %3, i32 0, i32 1
  %5 = load ptr, ptr %4, align 8, !tbaa !32
  ret ptr %5
}

; Function Attrs: nounwind uwtable
define internal ptr @array__array_reconstructor(ptr noundef %0, ptr noundef %1, i64 noundef %2) #0 {
  %4 = alloca ptr, align 8
  %5 = alloca ptr, align 8
  %6 = alloca i64, align 8
  %7 = alloca ptr, align 8
  %8 = alloca ptr, align 8
  %9 = alloca i32, align 4
  %10 = alloca i32, align 4
  %11 = alloca ptr, align 8
  store ptr %0, ptr %4, align 8, !tbaa !3
  store ptr %1, ptr %5, align 8, !tbaa !19
  store i64 %2, ptr %6, align 8, !tbaa !21
  call void @llvm.lifetime.start.p0(i64 8, ptr %7) #8
  store ptr null, ptr %7, align 8, !tbaa !3
  call void @llvm.lifetime.start.p0(i64 8, ptr %8) #8
  call void @llvm.lifetime.start.p0(i64 4, ptr %9) #8
  call void @llvm.lifetime.start.p0(i64 4, ptr %10) #8
  call void @llvm.lifetime.start.p0(i64 8, ptr %11) #8
  %12 = load i64, ptr %6, align 8, !tbaa !21
  %13 = icmp sle i64 4, %12
  br i1 %13, label %14, label %17

14:                                               ; preds = %3
  %15 = load i64, ptr %6, align 8, !tbaa !21
  %16 = icmp sle i64 %15, 4
  br i1 %16, label %22, label %17

17:                                               ; preds = %14, %3
  %18 = load i64, ptr %6, align 8, !tbaa !21
  %19 = call i32 @_PyArg_CheckPositional(ptr noundef @.str.1, i64 noundef %18, i64 noundef 4, i64 noundef 4)
  %20 = icmp ne i32 %19, 0
  br i1 %20, label %22, label %21

21:                                               ; preds = %17
  br label %74

22:                                               ; preds = %17, %14
  %23 = load ptr, ptr %5, align 8, !tbaa !19
  %24 = getelementptr ptr, ptr %23, i64 0
  %25 = load ptr, ptr %24, align 8, !tbaa !3
  store ptr %25, ptr %8, align 8, !tbaa !18
  %26 = load ptr, ptr %5, align 8, !tbaa !19
  %27 = getelementptr ptr, ptr %26, i64 1
  %28 = load ptr, ptr %27, align 8, !tbaa !3
  %29 = call ptr @_Py_TYPE(ptr noundef %28)
  %30 = call i32 @PyType_HasFeature(ptr noundef %29, i64 noundef 268435456)
  %31 = icmp ne i32 %30, 0
  br i1 %31, label %36, label %32

32:                                               ; preds = %22
  %33 = load ptr, ptr %5, align 8, !tbaa !19
  %34 = getelementptr ptr, ptr %33, i64 1
  %35 = load ptr, ptr %34, align 8, !tbaa !3
  call void @_PyArg_BadArgument(ptr noundef @.str.1, ptr noundef @.str.3, ptr noundef @.str.4, ptr noundef %35)
  br label %74

36:                                               ; preds = %22
  %37 = load ptr, ptr %5, align 8, !tbaa !19
  %38 = getelementptr ptr, ptr %37, i64 1
  %39 = load ptr, ptr %38, align 8, !tbaa !3
  %40 = call i64 @PyUnicode_GET_LENGTH(ptr noundef %39)
  %41 = icmp ne i64 %40, 1
  br i1 %41, label %42, label %49

42:                                               ; preds = %36
  %43 = load ptr, ptr @PyExc_TypeError, align 8, !tbaa !3
  %44 = load ptr, ptr %5, align 8, !tbaa !19
  %45 = getelementptr ptr, ptr %44, i64 1
  %46 = load ptr, ptr %45, align 8, !tbaa !3
  %47 = call i64 @PyUnicode_GET_LENGTH(ptr noundef %46)
  %48 = call ptr (ptr, ptr, ...) @PyErr_Format(ptr noundef %43, ptr noundef @.str.5, i64 noundef %47)
  br label %74

49:                                               ; preds = %36
  %50 = load ptr, ptr %5, align 8, !tbaa !19
  %51 = getelementptr ptr, ptr %50, i64 1
  %52 = load ptr, ptr %51, align 8, !tbaa !3
  %53 = call i32 @PyUnicode_READ_CHAR(ptr noundef %52, i64 noundef 0)
  store i32 %53, ptr %9, align 4, !tbaa !12
  %54 = load ptr, ptr %5, align 8, !tbaa !19
  %55 = getelementptr ptr, ptr %54, i64 2
  %56 = load ptr, ptr %55, align 8, !tbaa !3
  %57 = call i32 @PyLong_AsInt(ptr noundef %56)
  store i32 %57, ptr %10, align 4, !tbaa !12
  %58 = load i32, ptr %10, align 4, !tbaa !12
  %59 = icmp eq i32 %58, -1
  br i1 %59, label %60, label %64

60:                                               ; preds = %49
  %61 = call ptr @PyErr_Occurred()
  %62 = icmp ne ptr %61, null
  br i1 %62, label %63, label %64

63:                                               ; preds = %60
  br label %74

64:                                               ; preds = %60, %49
  %65 = load ptr, ptr %5, align 8, !tbaa !19
  %66 = getelementptr ptr, ptr %65, i64 3
  %67 = load ptr, ptr %66, align 8, !tbaa !3
  store ptr %67, ptr %11, align 8, !tbaa !3
  %68 = load ptr, ptr %4, align 8, !tbaa !3
  %69 = load ptr, ptr %8, align 8, !tbaa !18
  %70 = load i32, ptr %9, align 4, !tbaa !12
  %71 = load i32, ptr %10, align 4, !tbaa !12
  %72 = load ptr, ptr %11, align 8, !tbaa !3
  %73 = call ptr @array__array_reconstructor_impl(ptr noundef %68, ptr noundef %69, i32 noundef %70, i32 noundef %71, ptr noundef %72)
  store ptr %73, ptr %7, align 8, !tbaa !3
  br label %74

74:                                               ; preds = %64, %63, %42, %32, %21
  %75 = load ptr, ptr %7, align 8, !tbaa !3
  call void @llvm.lifetime.end.p0(i64 8, ptr %11) #8
  call void @llvm.lifetime.end.p0(i64 4, ptr %10) #8
  call void @llvm.lifetime.end.p0(i64 4, ptr %9) #8
  call void @llvm.lifetime.end.p0(i64 8, ptr %8) #8
  call void @llvm.lifetime.end.p0(i64 8, ptr %7) #8
  ret ptr %75
}