; Function Attrs: nounwind uwtable
define internal ptr @array__array_reconstructor(ptr noundef readonly captures(none) %0, ptr noundef readonly captures(none) %1, i64 noundef %2) #0 {
  %or.cond = icmp eq i64 %2, 4
  br i1 %or.cond, label %6, label %4

4:                                                ; preds = %3
  %5 = tail call i32 @_PyArg_CheckPositional(ptr noundef nonnull @.str.1, i64 noundef %2, i64 noundef 4, i64 noundef 4) #11
  %.not = icmp eq i32 %5, 0
  br i1 %.not, label %58, label %6

6:                                                ; preds = %3, %4
  %7 = load ptr, ptr %1, align 8, !tbaa !18
  %8 = getelementptr i8, ptr %1, i64 8
  %9 = load ptr, ptr %8, align 8, !tbaa !18
  %10 = getelementptr i8, ptr %9, i64 8
  %.val = load ptr, ptr %10, align 8, !tbaa !19
  %11 = getelementptr i8, ptr %.val, i64 168
  %.val23 = load i64, ptr %11, align 8, !tbaa !20
  %12 = and i64 %.val23, 268435456
  %.not20 = icmp eq i64 %12, 0
  br i1 %.not20, label %13, label %14

13:                                               ; preds = %6
  tail call void @_PyArg_BadArgument(ptr noundef nonnull @.str.1, ptr noundef nonnull @.str.3, ptr noundef nonnull @.str.4, ptr noundef nonnull %9) #11
  br label %58

14:                                               ; preds = %6
  %15 = getelementptr i8, ptr %9, i64 16
  %.val24 = load i64, ptr %15, align 8, !tbaa !30
  %.not21 = icmp eq i64 %.val24, 1
  br i1 %.not21, label %19, label %16

16:                                               ; preds = %14
  %17 = load ptr, ptr @PyExc_TypeError, align 8, !tbaa !18
  %18 = tail call ptr (ptr, ptr, ...) @PyErr_Format(ptr noundef %17, ptr noundef nonnull @.str.5, i64 noundef %.val24) #11
  br label %58

19:                                               ; preds = %14
  %20 = getelementptr inbounds nuw i8, ptr %9, i64 34
  %21 = load i16, ptr %20, align 2
  %22 = and i16 %21, 7
  %23 = and i16 %21, 8
  %.not.i19.i = icmp eq i16 %23, 0
  switch i16 %22, label %38 [
    i16 1, label %24
    i16 2, label %31
  ]

24:                                               ; preds = %19
  br i1 %.not.i19.i, label %27, label %25

25:                                               ; preds = %24
  %26 = and i16 %21, 16
  %.not.i.i.i = icmp eq i16 %26, 0
  %.0.v.i.i.i = select i1 %.not.i.i.i, i64 56, i64 40
  %.0.i.i.i = getelementptr i8, ptr %9, i64 %.0.v.i.i.i
  br label %_PyUnicode_DATA.exit.i

27:                                               ; preds = %24
  %28 = getelementptr i8, ptr %9, i64 56
  %.val4.i.i = load ptr, ptr %28, align 8, !tbaa !17
  br label %_PyUnicode_DATA.exit.i

_PyUnicode_DATA.exit.i:                           ; preds = %27, %25
  %.0.i.i = phi ptr [ %.0.i.i.i, %25 ], [ %.val4.i.i, %27 ]
  %29 = load i8, ptr %.0.i.i, align 1, !tbaa !17
  %30 = zext i8 %29 to i32
  br label %PyUnicode_READ_CHAR.exit

31:                                               ; preds = %19
  br i1 %.not.i19.i, label %34, label %32

32:                                               ; preds = %31
  %33 = and i16 %21, 16
  %.not.i.i12.i = icmp eq i16 %33, 0
  %.0.v.i.i13.i = select i1 %.not.i.i12.i, i64 56, i64 40
  %.0.i.i14.i = getelementptr i8, ptr %9, i64 %.0.v.i.i13.i
  br label %_PyUnicode_DATA.exit17.i

34:                                               ; preds = %31
  %35 = getelementptr i8, ptr %9, i64 56
  %.val4.i16.i = load ptr, ptr %35, align 8, !tbaa !17
  br label %_PyUnicode_DATA.exit17.i

_PyUnicode_DATA.exit17.i:                         ; preds = %34, %32
  %.0.i15.i = phi ptr [ %.0.i.i14.i, %32 ], [ %.val4.i16.i, %34 ]
  %36 = load i16, ptr %.0.i15.i, align 2, !tbaa !33
  %37 = zext i16 %36 to i32
  br label %PyUnicode_READ_CHAR.exit

38:                                               ; preds = %19
  br i1 %.not.i19.i, label %41, label %39

39:                                               ; preds = %38
  %40 = and i16 %21, 16
  %.not.i.i20.i = icmp eq i16 %40, 0
  %.0.v.i.i21.i = select i1 %.not.i.i20.i, i64 56, i64 40
  %.0.i.i22.i = getelementptr i8, ptr %9, i64 %.0.v.i.i21.i
  br label %_PyUnicode_DATA.exit25.i

41:                                               ; preds = %38
  %42 = getelementptr i8, ptr %9, i64 56
  %.val4.i24.i = load ptr, ptr %42, align 8, !tbaa !17
  br label %_PyUnicode_DATA.exit25.i

_PyUnicode_DATA.exit25.i:                         ; preds = %41, %39
  %.0.i23.i = phi ptr [ %.0.i.i22.i, %39 ], [ %.val4.i24.i, %41 ]
  %43 = load i32, ptr %.0.i23.i, align 4, !tbaa !34
  br label %PyUnicode_READ_CHAR.exit

PyUnicode_READ_CHAR.exit:                         ; preds = %_PyUnicode_DATA.exit.i, %_PyUnicode_DATA.exit17.i, %_PyUnicode_DATA.exit25.i
  %.0.i = phi i32 [ %30, %_PyUnicode_DATA.exit.i ], [ %37, %_PyUnicode_DATA.exit17.i ], [ %43, %_PyUnicode_DATA.exit25.i ]
  %44 = getelementptr i8, ptr %1, i64 16
  %45 = load ptr, ptr %44, align 8, !tbaa !18
  %46 = tail call i32 @PyLong_AsInt(ptr noundef %45) #11
  %47 = icmp eq i32 %46, -1
  br i1 %47, label %52, label %.split

.split:                                           ; preds = %PyUnicode_READ_CHAR.exit
  %48 = getelementptr i8, ptr %1, i64 24
  %49 = load ptr, ptr %48, align 8, !tbaa !18
  %50 = getelementptr i8, ptr %0, i64 32
  %.val27 = load ptr, ptr %50, align 8, !tbaa !3
  %51 = tail call fastcc ptr @array__array_reconstructor_impl(ptr %.val27, ptr noundef %7, i32 noundef %.0.i, i32 noundef %46, ptr noundef %49)
  br label %58

52:                                               ; preds = %PyUnicode_READ_CHAR.exit
  %53 = tail call ptr @PyErr_Occurred() #11
  %.not22 = icmp eq ptr %53, null
  br i1 %.not22, label %.split18, label %58

.split18:                                         ; preds = %52
  %54 = getelementptr i8, ptr %1, i64 24
  %55 = load ptr, ptr %54, align 8, !tbaa !18
  %56 = getelementptr i8, ptr %0, i64 32
  %.val26 = load ptr, ptr %56, align 8, !tbaa !3
  %57 = tail call fastcc ptr @array__array_reconstructor_impl(ptr %.val26, ptr noundef %7, i32 noundef %.0.i, i32 noundef -1, ptr noundef %55)
  br label %58

58:                                               ; preds = %.split, %.split18, %52, %4, %16, %13
  %.0 = phi ptr [ null, %16 ], [ null, %52 ], [ null, %13 ], [ null, %4 ], [ %51, %.split ], [ %57, %.split18 ]
  ret ptr %.0
}